---
triple:          'arm64-apple-darwin'
binary-path:     '/Users/adityapandey/Desktop/GitHub Repo/C:C++/DSA/Lab Assignments/Lab Assignment 08/output/Q5'
relocations:
  - { offsetInCU: 0x4001, offset: 0x4001, size: 0x8, addend: 0x0, symName: __ZNSt3__124__put_character_sequenceB7v160006IcNS_11char_traitsIcEEEERNS_13basic_ostreamIT_T0_EES7_PKS4_m, symObjAddr: 0x41A4, symBinAddr: 0x100006C40, symSize: 0x1F4 }
  - { offsetInCU: 0x6A2F, offset: 0x6A2F, size: 0x8, addend: 0x0, symName: __ZNSt3__1lsB7v160006INS_11char_traitsIcEEEERNS_13basic_ostreamIcT_EES6_PKc, symObjAddr: 0x22C, symBinAddr: 0x100002CC8, symSize: 0x48 }
  - { offsetInCU: 0x6A75, offset: 0x6A75, size: 0x8, addend: 0x0, symName: __ZNSt3__1neB7v160006ERKNS_16__deque_iteratorIP5TNodePS2_RS2_PS3_lLl512EEES8_, symObjAddr: 0xAE0, symBinAddr: 0x10000357C, symSize: 0x34 }
  - { offsetInCU: 0x6AB2, offset: 0x6AB2, size: 0x8, addend: 0x0, symName: __ZNSt3__1eqB7v160006ERKNS_16__deque_iteratorIP5TNodePS2_RS2_PS3_lLl512EEES8_, symObjAddr: 0xD74, symBinAddr: 0x100003810, symSize: 0x30 }
  - { offsetInCU: 0x6AEF, offset: 0x6AEF, size: 0x8, addend: 0x0, symName: __ZNSt3__130__libcpp_is_constant_evaluatedB7v160006Ev, symObjAddr: 0xEAC, symBinAddr: 0x100003948, symSize: 0xC }
  - { offsetInCU: 0x6B0C, offset: 0x6B0C, size: 0x8, addend: 0x0, symName: __ZNSt3__119__libcpp_deallocateB7v160006EPvmm, symObjAddr: 0xEB8, symBinAddr: 0x100003954, symSize: 0x30 }
  - { offsetInCU: 0x6B54, offset: 0x6B54, size: 0x8, addend: 0x0, symName: __ZNSt3__127__do_deallocate_handle_sizeB7v160006IJEEEvPvmDpT_, symObjAddr: 0xEE8, symBinAddr: 0x100003984, symSize: 0x28 }
  - { offsetInCU: 0x6B92, offset: 0x6B92, size: 0x8, addend: 0x0, symName: __ZNSt3__124__libcpp_operator_deleteB7v160006IJPvEEEvDpT_, symObjAddr: 0xF10, symBinAddr: 0x1000039AC, symSize: 0x24 }
  - { offsetInCU: 0x6BC7, offset: 0x6BC7, size: 0x8, addend: 0x0, symName: __ZNSt3__112__to_addressB7v160006IPP5TNodeEEPT_S5_, symObjAddr: 0x119C, symBinAddr: 0x100003C38, symSize: 0x14 }
  - { offsetInCU: 0x6BFC, offset: 0x6BFC, size: 0x8, addend: 0x0, symName: __ZNSt3__13maxB7v160006ImEERKT_S3_S3_, symObjAddr: 0x22FC, symBinAddr: 0x100004D98, symSize: 0x2C }
  - { offsetInCU: 0x70C8, offset: 0x70C8, size: 0x8, addend: 0x0, symName: __ZNSt3__14swapB7v160006IPPP5TNodeEEvRT_S6_, symObjAddr: 0x292C, symBinAddr: 0x1000053C8, symSize: 0x3C }
  - { offsetInCU: 0x7119, offset: 0x7119, size: 0x8, addend: 0x0, symName: __ZNSt3__14moveB7v160006IPPP5TNodeS4_EET0_T_S6_S5_, symObjAddr: 0x2A10, symBinAddr: 0x1000054AC, symSize: 0x40 }
  - { offsetInCU: 0x718F, offset: 0x718F, size: 0x8, addend: 0x0, symName: __ZNSt3__16__moveB7v160006INS_17_ClassicAlgPolicyEPPP5TNodeS5_S5_EENS_4pairIT0_T2_EES7_T1_S8_, symObjAddr: 0x2BBC, symBinAddr: 0x100005658, symSize: 0x44 }
  - { offsetInCU: 0x71FB, offset: 0x71FB, size: 0x8, addend: 0x0, symName: __ZNSt3__123__dispatch_copy_or_moveB7v160006INS_17_ClassicAlgPolicyENS_11__move_loopIS1_EENS_14__move_trivialEPPP5TNodeS8_S8_EENS_4pairIT2_T4_EESA_T3_SB_, symObjAddr: 0x2C00, symBinAddr: 0x10000569C, symSize: 0x54 }
  - { offsetInCU: 0x7279, offset: 0x7279, size: 0x8, addend: 0x0, symName: __ZNSt3__121__unwrap_and_dispatchB7v160006INS_10__overloadINS_11__move_loopINS_17_ClassicAlgPolicyEEENS_14__move_trivialEEEPPP5TNodeSA_SA_Li0EEENS_4pairIT0_T2_EESC_T1_SD_, symObjAddr: 0x2C54, symBinAddr: 0x1000056F0, symSize: 0xB4 }
  - { offsetInCU: 0x7307, offset: 0x7307, size: 0x8, addend: 0x0, symName: __ZNSt3__114__unwrap_rangeB7v160006IPPP5TNodeS4_EENS_4pairIT0_S6_EET_S8_, symObjAddr: 0x2D08, symBinAddr: 0x1000057A4, symSize: 0x60 }
  - { offsetInCU: 0x7446, offset: 0x7446, size: 0x8, addend: 0x0, symName: __ZNSt3__113__unwrap_iterB7v160006IPPP5TNodeNS_18__unwrap_iter_implIS4_Lb1EEELi0EEEDTclsrT0_8__unwrapclsr3stdE7declvalIT_EEEES8_, symObjAddr: 0x2DB0, symBinAddr: 0x10000584C, symSize: 0x24 }
  - { offsetInCU: 0x748A, offset: 0x748A, size: 0x8, addend: 0x0, symName: __ZNSt3__19make_pairB7v160006IPPP5TNodeS4_EENS_4pairINS_18__unwrap_ref_decayIT_E4typeENS6_IT0_E4typeEEEOS7_OSA_, symObjAddr: 0x2DD4, symBinAddr: 0x100005870, symSize: 0x38 }
  - { offsetInCU: 0x74D9, offset: 0x74D9, size: 0x8, addend: 0x0, symName: __ZNSt3__114__rewrap_rangeB7v160006IPPP5TNodeS4_EET_S5_T0_, symObjAddr: 0x2E0C, symBinAddr: 0x1000058A8, symSize: 0x2C }
  - { offsetInCU: 0x7525, offset: 0x7525, size: 0x8, addend: 0x0, symName: __ZNSt3__113__rewrap_iterB7v160006IPPP5TNodeS4_NS_18__unwrap_iter_implIS4_Lb1EEEEET_S7_T0_, symObjAddr: 0x2E38, symBinAddr: 0x1000058D4, symSize: 0x50 }
  - { offsetInCU: 0x757A, offset: 0x757A, size: 0x8, addend: 0x0, symName: __ZNSt3__119__copy_trivial_implB7v160006IPP5TNodeS3_EENS_4pairIPT_PT0_EES6_S6_S8_, symObjAddr: 0x2E88, symBinAddr: 0x100005924, symSize: 0x84 }
  - { offsetInCU: 0x75E2, offset: 0x75E2, size: 0x8, addend: 0x0, symName: __ZNSt3__19make_pairB7v160006IRPPP5TNodeS4_EENS_4pairINS_18__unwrap_ref_decayIT_E4typeENS7_IT0_E4typeEEEOS8_OSB_, symObjAddr: 0x2F0C, symBinAddr: 0x1000059A8, symSize: 0x38 }
  - { offsetInCU: 0x7684, offset: 0x7684, size: 0x8, addend: 0x0, symName: __ZNSt3__18distanceB7v160006INS_13move_iteratorIPPP5TNodeEEEENS_15iterator_traitsIT_E15difference_typeES8_S8_, symObjAddr: 0x3028, symBinAddr: 0x100005AC4, symSize: 0x3C }
  - { offsetInCU: 0x76C7, offset: 0x76C7, size: 0x8, addend: 0x0, symName: __ZNSt3__110__distanceB7v160006INS_13move_iteratorIPPP5TNodeEEEENS_15iterator_traitsIT_E15difference_typeES8_S8_NS_26random_access_iterator_tagE, symObjAddr: 0x3160, symBinAddr: 0x100005BFC, symSize: 0x30 }
  - { offsetInCU: 0x7714, offset: 0x7714, size: 0x8, addend: 0x0, symName: __ZNSt3__1miB7v160006IPPP5TNodeS4_EENS_13move_iteratorIT_E15difference_typeERKS7_RKNS5_IT0_EE, symObjAddr: 0x3190, symBinAddr: 0x100005C2C, symSize: 0x48 }
  - { offsetInCU: 0x7763, offset: 0x7763, size: 0x8, addend: 0x0, symName: __ZNSt3__117__libcpp_allocateB7v160006Emm, symObjAddr: 0x33E0, symBinAddr: 0x100005E7C, symSize: 0x28 }
  - { offsetInCU: 0x77A0, offset: 0x77A0, size: 0x8, addend: 0x0, symName: __ZNSt3__121__libcpp_operator_newB7v160006IJmEEEPvDpT_, symObjAddr: 0x341C, symBinAddr: 0x100005EB8, symSize: 0x24 }
  - { offsetInCU: 0x77D9, offset: 0x77D9, size: 0x8, addend: 0x0, symName: __ZNSt3__113move_backwardB7v160006IPPP5TNodeS4_EET0_T_S6_S5_, symObjAddr: 0x3440, symBinAddr: 0x100005EDC, symSize: 0x40 }
  - { offsetInCU: 0x7833, offset: 0x7833, size: 0x8, addend: 0x0, symName: __ZNSt3__115__move_backwardB7v160006INS_17_ClassicAlgPolicyEPPP5TNodeS5_S5_EENS_4pairIT0_T2_EES7_T1_S8_, symObjAddr: 0x3480, symBinAddr: 0x100005F1C, symSize: 0x44 }
  - { offsetInCU: 0x789F, offset: 0x789F, size: 0x8, addend: 0x0, symName: __ZNSt3__123__dispatch_copy_or_moveB7v160006INS_17_ClassicAlgPolicyENS_20__move_backward_loopIS1_EENS_23__move_backward_trivialEPPP5TNodeS8_S8_EENS_4pairIT2_T4_EESA_T3_SB_, symObjAddr: 0x34C4, symBinAddr: 0x100005F60, symSize: 0x54 }
  - { offsetInCU: 0x791D, offset: 0x791D, size: 0x8, addend: 0x0, symName: __ZNSt3__121__unwrap_and_dispatchB7v160006INS_10__overloadINS_20__move_backward_loopINS_17_ClassicAlgPolicyEEENS_23__move_backward_trivialEEEPPP5TNodeSA_SA_Li0EEENS_4pairIT0_T2_EESC_T1_SD_, symObjAddr: 0x3518, symBinAddr: 0x100005FB4, symSize: 0xB4 }
  - { offsetInCU: 0x79F1, offset: 0x79F1, size: 0x8, addend: 0x0, symName: __ZNSt3__128__copy_backward_trivial_implB7v160006IPP5TNodeS3_EENS_4pairIPT_PT0_EES6_S6_S8_, symObjAddr: 0x3614, symBinAddr: 0x1000060B0, symSize: 0x94 }
  - { offsetInCU: 0x7A59, offset: 0x7A59, size: 0x8, addend: 0x0, symName: __ZNSt3__19make_pairB7v160006IRPPP5TNodeS5_EENS_4pairINS_18__unwrap_ref_decayIT_E4typeENS7_IT0_E4typeEEEOS8_OSB_, symObjAddr: 0x36A8, symBinAddr: 0x100006144, symSize: 0x38 }
  - { offsetInCU: 0x7AA8, offset: 0x7AA8, size: 0x8, addend: 0x0, symName: __ZNSt3__13maxB7v160006ImNS_6__lessImmEEEERKT_S5_S5_T0_, symObjAddr: 0x36E0, symBinAddr: 0x10000617C, symSize: 0x54 }
  - { offsetInCU: 0x7B3D, offset: 0x7B3D, size: 0x8, addend: 0x0, symName: __ZNSt3__119__allocate_at_leastB7v160006INS_9allocatorIPP5TNodeEEEENS_19__allocation_resultINS_16allocator_traitsIT_E7pointerEEERS8_m, symObjAddr: 0x3878, symBinAddr: 0x100006314, symSize: 0x40 }
  - { offsetInCU: 0x7B80, offset: 0x7B80, size: 0x8, addend: 0x0, symName: __ZNSt3__112__to_addressB7v160006IP5TNodeEEPT_S4_, symObjAddr: 0x4050, symBinAddr: 0x100006AEC, symSize: 0x14 }
  - { offsetInCU: 0x7BB5, offset: 0x7BB5, size: 0x8, addend: 0x0, symName: __ZNSt3__116__pad_and_outputB7v160006IcNS_11char_traitsIcEEEENS_19ostreambuf_iteratorIT_T0_EES6_PKS4_S8_S8_RNS_8ios_baseES4_, symObjAddr: 0x43FC, symBinAddr: 0x100006E98, symSize: 0x248 }
  - { offsetInCU: 0x7C84, offset: 0x7C84, size: 0x8, addend: 0x0, symName: __ZNSt3__119__debug_db_insert_cB7v160006INS_12basic_stringIcNS_11char_traitsIcEENS_9allocatorIcEEEEEEvPT_, symObjAddr: 0x48B8, symBinAddr: 0x100007354, symSize: 0x10 }
  - { offsetInCU: 0x7CB5, offset: 0x7CB5, size: 0x8, addend: 0x0, symName: __ZNSt3__112__to_addressB7v160006IKcEEPT_S3_, symObjAddr: 0x4984, symBinAddr: 0x100007420, symSize: 0x14 }
  - { offsetInCU: 0x7D1D, offset: 0x7D1D, size: 0x8, addend: 0x0, symName: __ZNSt3__19use_facetB7v160006INS_5ctypeIcEEEERKT_RKNS_6localeE, symObjAddr: 0x4C5C, symBinAddr: 0x1000076F8, symSize: 0x2C }
  - { offsetInCU: 0x81EC, offset: 0x81EC, size: 0x8, addend: 0x0, symName: __ZNSt3__118__constexpr_strlenB7v160006EPKc, symObjAddr: 0x4CF4, symBinAddr: 0x100007790, symSize: 0x24 }
  - { offsetInCU: 0x8329, offset: 0x8329, size: 0x8, addend: 0x0, symName: __ZSt28__throw_bad_array_new_lengthB7v160006v, symObjAddr: 0x33AC, symBinAddr: 0x100005E48, symSize: 0x34 }
  - { offsetInCU: 0xAA57, offset: 0xAA57, size: 0x8, addend: 0x0, symName: __Z16inOrderTraversalP5TNode, symObjAddr: 0x0, symBinAddr: 0x100002A9C, symSize: 0x164 }
  - { offsetInCU: 0xAAC9, offset: 0xAAC9, size: 0x8, addend: 0x0, symName: __ZNSt3__15stackIP5TNodeNS_5dequeIS2_NS_9allocatorIS2_EEEEEC1B7v160006Ev, symObjAddr: 0x164, symBinAddr: 0x100002C00, symSize: 0x2C }
  - { offsetInCU: 0xAAF3, offset: 0xAAF3, size: 0x8, addend: 0x0, symName: __ZNKSt3__15stackIP5TNodeNS_5dequeIS2_NS_9allocatorIS2_EEEEE5emptyB7v160006Ev, symObjAddr: 0x190, symBinAddr: 0x100002C2C, symSize: 0x28 }
  - { offsetInCU: 0xAB19, offset: 0xAB19, size: 0x8, addend: 0x0, symName: __ZNSt3__15stackIP5TNodeNS_5dequeIS2_NS_9allocatorIS2_EEEEE4pushB7v160006ERKS2_, symObjAddr: 0x1B8, symBinAddr: 0x100002C54, symSize: 0x2C }
  - { offsetInCU: 0xAB4D, offset: 0xAB4D, size: 0x8, addend: 0x0, symName: __ZNSt3__15stackIP5TNodeNS_5dequeIS2_NS_9allocatorIS2_EEEEE3topB7v160006Ev, symObjAddr: 0x1E4, symBinAddr: 0x100002C80, symSize: 0x24 }
  - { offsetInCU: 0xAB73, offset: 0xAB73, size: 0x8, addend: 0x0, symName: __ZNSt3__15stackIP5TNodeNS_5dequeIS2_NS_9allocatorIS2_EEEEE3popB7v160006Ev, symObjAddr: 0x208, symBinAddr: 0x100002CA4, symSize: 0x24 }
  - { offsetInCU: 0xAB99, offset: 0xAB99, size: 0x8, addend: 0x0, symName: __ZNSt3__15stackIP5TNodeNS_5dequeIS2_NS_9allocatorIS2_EEEEED1Ev, symObjAddr: 0x274, symBinAddr: 0x100002D10, symSize: 0x2C }
  - { offsetInCU: 0xABC5, offset: 0xABC5, size: 0x8, addend: 0x0, symName: _main, symObjAddr: 0x2AC, symBinAddr: 0x100002D48, symSize: 0x338 }
  - { offsetInCU: 0xABEE, offset: 0xABEE, size: 0x8, addend: 0x0, symName: __ZN5TNodeC1Ei, symObjAddr: 0x5E4, symBinAddr: 0x100003080, symSize: 0x34 }
  - { offsetInCU: 0xAC26, offset: 0xAC26, size: 0x8, addend: 0x0, symName: __ZNSt3__15stackIP5TNodeNS_5dequeIS2_NS_9allocatorIS2_EEEEED2Ev, symObjAddr: 0x618, symBinAddr: 0x1000030B4, symSize: 0x2C }
  - { offsetInCU: 0xAC52, offset: 0xAC52, size: 0x8, addend: 0x0, symName: __ZNSt3__15dequeIP5TNodeNS_9allocatorIS2_EEED1B7v160006Ev, symObjAddr: 0x644, symBinAddr: 0x1000030E0, symSize: 0x2C }
  - { offsetInCU: 0xAC7C, offset: 0xAC7C, size: 0x8, addend: 0x0, symName: __ZNSt3__15dequeIP5TNodeNS_9allocatorIS2_EEED2B7v160006Ev, symObjAddr: 0x670, symBinAddr: 0x10000310C, symSize: 0x9C }
  - { offsetInCU: 0xACD3, offset: 0xACD3, size: 0x8, addend: 0x0, symName: __ZNSt3__15dequeIP5TNodeNS_9allocatorIS2_EEE5clearEv, symObjAddr: 0x70C, symBinAddr: 0x1000031A8, symSize: 0x194 }
  - { offsetInCU: 0xAD37, offset: 0xAD37, size: 0x8, addend: 0x0, symName: __ZNSt3__114__split_bufferIPP5TNodeNS_9allocatorIS3_EEE5beginB7v160006Ev, symObjAddr: 0x8A0, symBinAddr: 0x10000333C, symSize: 0x18 }
  - { offsetInCU: 0xAD5D, offset: 0xAD5D, size: 0x8, addend: 0x0, symName: __ZNSt3__114__split_bufferIPP5TNodeNS_9allocatorIS3_EEE3endB7v160006Ev, symObjAddr: 0x8B8, symBinAddr: 0x100003354, symSize: 0x18 }
  - { offsetInCU: 0xAD83, offset: 0xAD83, size: 0x8, addend: 0x0, symName: __ZNSt3__116allocator_traitsINS_9allocatorIP5TNodeEEE10deallocateB7v160006ERS4_PS3_m, symObjAddr: 0x8D0, symBinAddr: 0x10000336C, symSize: 0x34 }
  - { offsetInCU: 0xADC5, offset: 0xADC5, size: 0x8, addend: 0x0, symName: __ZNSt3__15dequeIP5TNodeNS_9allocatorIS2_EEE7__allocB7v160006Ev, symObjAddr: 0x904, symBinAddr: 0x1000033A0, symSize: 0x28 }
  - { offsetInCU: 0xADEB, offset: 0xADEB, size: 0x8, addend: 0x0, symName: __ZNSt3__114__split_bufferIPP5TNodeNS_9allocatorIS3_EEED1Ev, symObjAddr: 0x92C, symBinAddr: 0x1000033C8, symSize: 0x2C }
  - { offsetInCU: 0xAE17, offset: 0xAE17, size: 0x8, addend: 0x0, symName: __ZNSt3__15dequeIP5TNodeNS_9allocatorIS2_EEE5beginB7v160006Ev, symObjAddr: 0x958, symBinAddr: 0x1000033F4, symSize: 0xCC }
  - { offsetInCU: 0xAE4C, offset: 0xAE4C, size: 0x8, addend: 0x0, symName: __ZNSt3__15dequeIP5TNodeNS_9allocatorIS2_EEE3endB7v160006Ev, symObjAddr: 0xA24, symBinAddr: 0x1000034C0, symSize: 0xBC }
  - { offsetInCU: 0xAE90, offset: 0xAE90, size: 0x8, addend: 0x0, symName: __ZNSt3__116allocator_traitsINS_9allocatorIP5TNodeEEE7destroyB7v160006IS3_vEEvRS4_PT_, symObjAddr: 0xB14, symBinAddr: 0x1000035B0, symSize: 0x2C }
  - { offsetInCU: 0xAECD, offset: 0xAECD, size: 0x8, addend: 0x0, symName: __ZNKSt3__116__deque_iteratorIP5TNodePS2_RS2_PS3_lLl512EEdeB7v160006Ev, symObjAddr: 0xB40, symBinAddr: 0x1000035DC, symSize: 0x18 }
  - { offsetInCU: 0xAEF3, offset: 0xAEF3, size: 0x8, addend: 0x0, symName: __ZNSt3__116__deque_iteratorIP5TNodePS2_RS2_PS3_lLl512EEppB7v160006Ev, symObjAddr: 0xB58, symBinAddr: 0x1000035F4, symSize: 0x70 }
  - { offsetInCU: 0xAF19, offset: 0xAF19, size: 0x8, addend: 0x0, symName: __ZNSt3__15dequeIP5TNodeNS_9allocatorIS2_EEE6__sizeB7v160006Ev, symObjAddr: 0xBC8, symBinAddr: 0x100003664, symSize: 0x28 }
  - { offsetInCU: 0xAF3F, offset: 0xAF3F, size: 0x8, addend: 0x0, symName: __ZNKSt3__114__split_bufferIPP5TNodeNS_9allocatorIS3_EEE4sizeB7v160006Ev, symObjAddr: 0xBF0, symBinAddr: 0x10000368C, symSize: 0x28 }
  - { offsetInCU: 0xAF65, offset: 0xAF65, size: 0x8, addend: 0x0, symName: __ZNSt3__114__split_bufferIPP5TNodeNS_9allocatorIS3_EEE5frontB7v160006Ev, symObjAddr: 0xC18, symBinAddr: 0x1000036B4, symSize: 0x18 }
  - { offsetInCU: 0xAF8B, offset: 0xAF8B, size: 0x8, addend: 0x0, symName: __ZNSt3__114__split_bufferIPP5TNodeNS_9allocatorIS3_EEE9pop_frontB7v160006Ev, symObjAddr: 0xC30, symBinAddr: 0x1000036CC, symSize: 0x2C }
  - { offsetInCU: 0xAFB1, offset: 0xAFB1, size: 0x8, addend: 0x0, symName: __ZNKSt3__114__split_bufferIPP5TNodeNS_9allocatorIS3_EEE5emptyB7v160006Ev, symObjAddr: 0xC5C, symBinAddr: 0x1000036F8, symSize: 0x28 }
  - { offsetInCU: 0xAFD7, offset: 0xAFD7, size: 0x8, addend: 0x0, symName: __ZNSt3__116__deque_iteratorIP5TNodePS2_RS2_PS3_lLl512EEC1B7v160006ES5_S3_, symObjAddr: 0xC84, symBinAddr: 0x100003720, symSize: 0x3C }
  - { offsetInCU: 0xB01F, offset: 0xB01F, size: 0x8, addend: 0x0, symName: __ZNSt3__116__deque_iteratorIP5TNodePS2_RS2_PS3_lLl512EEC2B7v160006ES5_S3_, symObjAddr: 0xCC0, symBinAddr: 0x10000375C, symSize: 0x2C }
  - { offsetInCU: 0xB067, offset: 0xB067, size: 0x8, addend: 0x0, symName: __ZNKSt3__15dequeIP5TNodeNS_9allocatorIS2_EEE4sizeB7v160006Ev, symObjAddr: 0xCEC, symBinAddr: 0x100003788, symSize: 0x28 }
  - { offsetInCU: 0xB08D, offset: 0xB08D, size: 0x8, addend: 0x0, symName: __ZNKSt3__15dequeIP5TNodeNS_9allocatorIS2_EEE6__sizeB7v160006Ev, symObjAddr: 0xD14, symBinAddr: 0x1000037B0, symSize: 0x28 }
  - { offsetInCU: 0xB0B3, offset: 0xB0B3, size: 0x8, addend: 0x0, symName: __ZNKSt3__117__compressed_pairImNS_9allocatorIP5TNodeEEE5firstB7v160006Ev, symObjAddr: 0xD3C, symBinAddr: 0x1000037D8, symSize: 0x24 }
  - { offsetInCU: 0xB0D9, offset: 0xB0D9, size: 0x8, addend: 0x0, symName: __ZNKSt3__122__compressed_pair_elemImLi0ELb0EE5__getB7v160006Ev, symObjAddr: 0xD60, symBinAddr: 0x1000037FC, symSize: 0x14 }
  - { offsetInCU: 0xB0FF, offset: 0xB0FF, size: 0x8, addend: 0x0, symName: __ZNSt3__19allocatorIP5TNodeE7destroyB7v160006EPS2_, symObjAddr: 0xDA4, symBinAddr: 0x100003840, symSize: 0x14 }
  - { offsetInCU: 0xB133, offset: 0xB133, size: 0x8, addend: 0x0, symName: __ZNSt3__117__compressed_pairImNS_9allocatorIP5TNodeEEE5firstB7v160006Ev, symObjAddr: 0xDB8, symBinAddr: 0x100003854, symSize: 0x24 }
  - { offsetInCU: 0xB159, offset: 0xB159, size: 0x8, addend: 0x0, symName: __ZNSt3__122__compressed_pair_elemImLi0ELb0EE5__getB7v160006Ev, symObjAddr: 0xDDC, symBinAddr: 0x100003878, symSize: 0x14 }
  - { offsetInCU: 0xB17F, offset: 0xB17F, size: 0x8, addend: 0x0, symName: __ZNSt3__114__split_bufferIPP5TNodeNS_9allocatorIS3_EEE19__destruct_at_beginB7v160006EPS3_, symObjAddr: 0xDF0, symBinAddr: 0x10000388C, symSize: 0x2C }
  - { offsetInCU: 0xB1B3, offset: 0xB1B3, size: 0x8, addend: 0x0, symName: __ZNSt3__114__split_bufferIPP5TNodeNS_9allocatorIS3_EEE19__destruct_at_beginEPS3_NS_17integral_constantIbLb1EEE, symObjAddr: 0xE1C, symBinAddr: 0x1000038B8, symSize: 0x20 }
  - { offsetInCU: 0xB1F3, offset: 0xB1F3, size: 0x8, addend: 0x0, symName: __ZNSt3__19allocatorIP5TNodeE10deallocateB7v160006EPS2_m, symObjAddr: 0xE3C, symBinAddr: 0x1000038D8, symSize: 0x70 }
  - { offsetInCU: 0xB235, offset: 0xB235, size: 0x8, addend: 0x0, symName: __ZNSt3__117__compressed_pairImNS_9allocatorIP5TNodeEEE6secondB7v160006Ev, symObjAddr: 0xF34, symBinAddr: 0x1000039D0, symSize: 0x24 }
  - { offsetInCU: 0xB25B, offset: 0xB25B, size: 0x8, addend: 0x0, symName: __ZNSt3__122__compressed_pair_elemINS_9allocatorIP5TNodeEELi1ELb1EE5__getB7v160006Ev, symObjAddr: 0xF58, symBinAddr: 0x1000039F4, symSize: 0x14 }
  - { offsetInCU: 0xB281, offset: 0xB281, size: 0x8, addend: 0x0, symName: __ZNSt3__114__split_bufferIPP5TNodeNS_9allocatorIS3_EEED2Ev, symObjAddr: 0xF6C, symBinAddr: 0x100003A08, symSize: 0x80 }
  - { offsetInCU: 0xB2AD, offset: 0xB2AD, size: 0x8, addend: 0x0, symName: __ZNSt3__114__split_bufferIPP5TNodeNS_9allocatorIS3_EEE5clearB7v160006Ev, symObjAddr: 0xFEC, symBinAddr: 0x100003A88, symSize: 0x28 }
  - { offsetInCU: 0xB2D3, offset: 0xB2D3, size: 0x8, addend: 0x0, symName: __ZNSt3__116allocator_traitsINS_9allocatorIPP5TNodeEEE10deallocateB7v160006ERS5_PS4_m, symObjAddr: 0x1014, symBinAddr: 0x100003AB0, symSize: 0x34 }
  - { offsetInCU: 0xB315, offset: 0xB315, size: 0x8, addend: 0x0, symName: __ZNSt3__114__split_bufferIPP5TNodeNS_9allocatorIS3_EEE7__allocB7v160006Ev, symObjAddr: 0x1048, symBinAddr: 0x100003AE4, symSize: 0x28 }
  - { offsetInCU: 0xB33B, offset: 0xB33B, size: 0x8, addend: 0x0, symName: __ZNKSt3__114__split_bufferIPP5TNodeNS_9allocatorIS3_EEE8capacityB7v160006Ev, symObjAddr: 0x1070, symBinAddr: 0x100003B0C, symSize: 0x40 }
  - { offsetInCU: 0xB361, offset: 0xB361, size: 0x8, addend: 0x0, symName: __ZNSt3__114__split_bufferIPP5TNodeNS_9allocatorIS3_EEE17__destruct_at_endB7v160006EPS3_, symObjAddr: 0x10B0, symBinAddr: 0x100003B4C, symSize: 0x2C }
  - { offsetInCU: 0xB395, offset: 0xB395, size: 0x8, addend: 0x0, symName: __ZNSt3__114__split_bufferIPP5TNodeNS_9allocatorIS3_EEE17__destruct_at_endB7v160006EPS3_NS_17integral_constantIbLb0EEE, symObjAddr: 0x10DC, symBinAddr: 0x100003B78, symSize: 0x94 }
  - { offsetInCU: 0xB3D5, offset: 0xB3D5, size: 0x8, addend: 0x0, symName: __ZNSt3__116allocator_traitsINS_9allocatorIPP5TNodeEEE7destroyB7v160006IS4_vEEvRS5_PT_, symObjAddr: 0x1170, symBinAddr: 0x100003C0C, symSize: 0x2C }
  - { offsetInCU: 0xB412, offset: 0xB412, size: 0x8, addend: 0x0, symName: __ZNSt3__19allocatorIPP5TNodeE7destroyB7v160006EPS3_, symObjAddr: 0x11B0, symBinAddr: 0x100003C4C, symSize: 0x14 }
  - { offsetInCU: 0xB446, offset: 0xB446, size: 0x8, addend: 0x0, symName: __ZNSt3__19allocatorIPP5TNodeE10deallocateB7v160006EPS3_m, symObjAddr: 0x11C4, symBinAddr: 0x100003C60, symSize: 0x70 }
  - { offsetInCU: 0xB488, offset: 0xB488, size: 0x8, addend: 0x0, symName: __ZNSt3__117__compressed_pairIPPP5TNodeNS_9allocatorIS3_EEE6secondB7v160006Ev, symObjAddr: 0x1234, symBinAddr: 0x100003CD0, symSize: 0x24 }
  - { offsetInCU: 0xB4AE, offset: 0xB4AE, size: 0x8, addend: 0x0, symName: __ZNSt3__122__compressed_pair_elemINS_9allocatorIPP5TNodeEELi1ELb1EE5__getB7v160006Ev, symObjAddr: 0x1258, symBinAddr: 0x100003CF4, symSize: 0x14 }
  - { offsetInCU: 0xB4D4, offset: 0xB4D4, size: 0x8, addend: 0x0, symName: __ZNKSt3__114__split_bufferIPP5TNodeNS_9allocatorIS3_EEE9__end_capB7v160006Ev, symObjAddr: 0x126C, symBinAddr: 0x100003D08, symSize: 0x28 }
  - { offsetInCU: 0xB4FA, offset: 0xB4FA, size: 0x8, addend: 0x0, symName: __ZNKSt3__117__compressed_pairIPPP5TNodeNS_9allocatorIS3_EEE5firstB7v160006Ev, symObjAddr: 0x1294, symBinAddr: 0x100003D30, symSize: 0x24 }
  - { offsetInCU: 0xB520, offset: 0xB520, size: 0x8, addend: 0x0, symName: __ZNKSt3__122__compressed_pair_elemIPPP5TNodeLi0ELb0EE5__getB7v160006Ev, symObjAddr: 0x12B8, symBinAddr: 0x100003D54, symSize: 0x14 }
  - { offsetInCU: 0xB546, offset: 0xB546, size: 0x8, addend: 0x0, symName: __ZN5TNodeC2Ei, symObjAddr: 0x12CC, symBinAddr: 0x100003D68, symSize: 0x28 }
  - { offsetInCU: 0xB57E, offset: 0xB57E, size: 0x8, addend: 0x0, symName: __ZNSt3__15stackIP5TNodeNS_5dequeIS2_NS_9allocatorIS2_EEEEEC2B7v160006Ev, symObjAddr: 0x12F4, symBinAddr: 0x100003D90, symSize: 0x2C }
  - { offsetInCU: 0xB5A8, offset: 0xB5A8, size: 0x8, addend: 0x0, symName: __ZNSt3__15dequeIP5TNodeNS_9allocatorIS2_EEEC1B7v160006Ev, symObjAddr: 0x1320, symBinAddr: 0x100003DBC, symSize: 0x2C }
  - { offsetInCU: 0xB5D2, offset: 0xB5D2, size: 0x8, addend: 0x0, symName: __ZNSt3__15dequeIP5TNodeNS_9allocatorIS2_EEEC2B7v160006Ev, symObjAddr: 0x134C, symBinAddr: 0x100003DE8, symSize: 0x78 }
  - { offsetInCU: 0xB5FC, offset: 0xB5FC, size: 0x8, addend: 0x0, symName: __ZNSt3__114__split_bufferIPP5TNodeNS_9allocatorIS3_EEEC1Ev, symObjAddr: 0x13C4, symBinAddr: 0x100003E60, symSize: 0x2C }
  - { offsetInCU: 0xB632, offset: 0xB632, size: 0x8, addend: 0x0, symName: __ZNSt3__117__compressed_pairImNS_9allocatorIP5TNodeEEEC1B7v160006IiNS_18__default_init_tagEEEOT_OT0_, symObjAddr: 0x13F0, symBinAddr: 0x100003E8C, symSize: 0x3C }
  - { offsetInCU: 0xB68A, offset: 0xB68A, size: 0x8, addend: 0x0, symName: __ZNSt3__114__split_bufferIPP5TNodeNS_9allocatorIS3_EEEC2Ev, symObjAddr: 0x142C, symBinAddr: 0x100003EC8, symSize: 0x48 }
  - { offsetInCU: 0xB6BB, offset: 0xB6BB, size: 0x8, addend: 0x0, symName: __ZNSt3__117__compressed_pairIPPP5TNodeNS_9allocatorIS3_EEEC1B7v160006IDnNS_18__default_init_tagEEEOT_OT0_, symObjAddr: 0x1474, symBinAddr: 0x100003F10, symSize: 0x3C }
  - { offsetInCU: 0xB713, offset: 0xB713, size: 0x8, addend: 0x0, symName: __ZNSt3__117__compressed_pairIPPP5TNodeNS_9allocatorIS3_EEEC2B7v160006IDnNS_18__default_init_tagEEEOT_OT0_, symObjAddr: 0x14B0, symBinAddr: 0x100003F4C, symSize: 0x40 }
  - { offsetInCU: 0xB76B, offset: 0xB76B, size: 0x8, addend: 0x0, symName: __ZNSt3__122__compressed_pair_elemIPPP5TNodeLi0ELb0EEC2B7v160006IDnvEEOT_, symObjAddr: 0x14F0, symBinAddr: 0x100003F8C, symSize: 0x1C }
  - { offsetInCU: 0xB7AD, offset: 0xB7AD, size: 0x8, addend: 0x0, symName: __ZNSt3__122__compressed_pair_elemINS_9allocatorIPP5TNodeEELi1ELb1EEC2B7v160006ENS_18__default_init_tagE, symObjAddr: 0x150C, symBinAddr: 0x100003FA8, symSize: 0x2C }
  - { offsetInCU: 0xB7E1, offset: 0xB7E1, size: 0x8, addend: 0x0, symName: __ZNSt3__19allocatorIPP5TNodeEC2B7v160006Ev, symObjAddr: 0x1538, symBinAddr: 0x100003FD4, symSize: 0x2C }
  - { offsetInCU: 0xB80B, offset: 0xB80B, size: 0x8, addend: 0x0, symName: __ZNSt3__116__non_trivial_ifILb1ENS_9allocatorIPP5TNodeEEEC2B7v160006Ev, symObjAddr: 0x1564, symBinAddr: 0x100004000, symSize: 0x14 }
  - { offsetInCU: 0xB835, offset: 0xB835, size: 0x8, addend: 0x0, symName: __ZNSt3__117__compressed_pairImNS_9allocatorIP5TNodeEEEC2B7v160006IiNS_18__default_init_tagEEEOT_OT0_, symObjAddr: 0x1578, symBinAddr: 0x100004014, symSize: 0x40 }
  - { offsetInCU: 0xB88D, offset: 0xB88D, size: 0x8, addend: 0x0, symName: __ZNSt3__122__compressed_pair_elemImLi0ELb0EEC2B7v160006IivEEOT_, symObjAddr: 0x15B8, symBinAddr: 0x100004054, symSize: 0x24 }
  - { offsetInCU: 0xB8CF, offset: 0xB8CF, size: 0x8, addend: 0x0, symName: __ZNSt3__122__compressed_pair_elemINS_9allocatorIP5TNodeEELi1ELb1EEC2B7v160006ENS_18__default_init_tagE, symObjAddr: 0x15DC, symBinAddr: 0x100004078, symSize: 0x2C }
  - { offsetInCU: 0xB903, offset: 0xB903, size: 0x8, addend: 0x0, symName: __ZNSt3__19allocatorIP5TNodeEC2B7v160006Ev, symObjAddr: 0x1608, symBinAddr: 0x1000040A4, symSize: 0x2C }
  - { offsetInCU: 0xB92D, offset: 0xB92D, size: 0x8, addend: 0x0, symName: __ZNSt3__116__non_trivial_ifILb1ENS_9allocatorIP5TNodeEEEC2B7v160006Ev, symObjAddr: 0x1634, symBinAddr: 0x1000040D0, symSize: 0x14 }
  - { offsetInCU: 0xB957, offset: 0xB957, size: 0x8, addend: 0x0, symName: __ZNKSt3__15dequeIP5TNodeNS_9allocatorIS2_EEE5emptyB7v160006Ev, symObjAddr: 0x1648, symBinAddr: 0x1000040E4, symSize: 0x30 }
  - { offsetInCU: 0xB97D, offset: 0xB97D, size: 0x8, addend: 0x0, symName: __ZNSt3__15dequeIP5TNodeNS_9allocatorIS2_EEE9push_backERKS2_, symObjAddr: 0x1678, symBinAddr: 0x100004114, symSize: 0xA0 }
  - { offsetInCU: 0xB9C3, offset: 0xB9C3, size: 0x8, addend: 0x0, symName: __ZNKSt3__15dequeIP5TNodeNS_9allocatorIS2_EEE12__back_spareB7v160006Ev, symObjAddr: 0x1718, symBinAddr: 0x1000041B4, symSize: 0x54 }
  - { offsetInCU: 0xB9E9, offset: 0xB9E9, size: 0x8, addend: 0x0, symName: __ZNSt3__15dequeIP5TNodeNS_9allocatorIS2_EEE19__add_back_capacityEv, symObjAddr: 0x176C, symBinAddr: 0x100004208, symSize: 0x32C }
  - { offsetInCU: 0xBAA1, offset: 0xBAA1, size: 0x8, addend: 0x0, symName: __ZNSt3__116allocator_traitsINS_9allocatorIP5TNodeEEE9constructB7v160006IS3_JRKS3_EvEEvRS4_PT_DpOT0_, symObjAddr: 0x1A98, symBinAddr: 0x100004534, symSize: 0x34 }
  - { offsetInCU: 0xBAF8, offset: 0xBAF8, size: 0x8, addend: 0x0, symName: __ZNKSt3__15dequeIP5TNodeNS_9allocatorIS2_EEE10__capacityB7v160006Ev, symObjAddr: 0x1ACC, symBinAddr: 0x100004568, symSize: 0x60 }
  - { offsetInCU: 0xBB1E, offset: 0xBB1E, size: 0x8, addend: 0x0, symName: __ZNKSt3__15dequeIP5TNodeNS_9allocatorIS2_EEE13__front_spareB7v160006Ev, symObjAddr: 0x1B2C, symBinAddr: 0x1000045C8, symSize: 0x18 }
  - { offsetInCU: 0xBB44, offset: 0xBB44, size: 0x8, addend: 0x0, symName: __ZNSt3__114__split_bufferIPP5TNodeNS_9allocatorIS3_EEE9push_backB7v160006ERKS3_, symObjAddr: 0x1B44, symBinAddr: 0x1000045E0, symSize: 0x270 }
  - { offsetInCU: 0xBBBD, offset: 0xBBBD, size: 0x8, addend: 0x0, symName: __ZNKSt3__114__split_bufferIPP5TNodeNS_9allocatorIS3_EEE12__back_spareB7v160006Ev, symObjAddr: 0x1DB4, symBinAddr: 0x100004850, symSize: 0x40 }
  - { offsetInCU: 0xBBE3, offset: 0xBBE3, size: 0x8, addend: 0x0, symName: __ZNSt3__114__split_bufferIPP5TNodeNS_9allocatorIS3_EEE9push_backEOS3_, symObjAddr: 0x1DF4, symBinAddr: 0x100004890, symSize: 0x270 }
  - { offsetInCU: 0xBC5C, offset: 0xBC5C, size: 0x8, addend: 0x0, symName: __ZNSt3__116allocator_traitsINS_9allocatorIP5TNodeEEE8allocateB7v160006ERS4_m, symObjAddr: 0x2064, symBinAddr: 0x100004B00, symSize: 0x2C }
  - { offsetInCU: 0xBC8F, offset: 0xBC8F, size: 0x8, addend: 0x0, symName: __ZNSt3__114__split_bufferIPP5TNodeNS_9allocatorIS3_EEE10push_frontEOS3_, symObjAddr: 0x2090, symBinAddr: 0x100004B2C, symSize: 0x26C }
  - { offsetInCU: 0xBD08, offset: 0xBD08, size: 0x8, addend: 0x0, symName: __ZNSt3__114__split_bufferIPP5TNodeRNS_9allocatorIS3_EEEC1EmmS6_, symObjAddr: 0x2328, symBinAddr: 0x100004DC4, symSize: 0x44 }
  - { offsetInCU: 0xBD63, offset: 0xBD63, size: 0x8, addend: 0x0, symName: __ZNSt3__122__allocator_destructorINS_9allocatorIP5TNodeEEEC1B7v160006ERS4_m, symObjAddr: 0x236C, symBinAddr: 0x100004E08, symSize: 0x3C }
  - { offsetInCU: 0xBE2B, offset: 0xBE2B, size: 0x8, addend: 0x0, symName: __ZNSt3__110unique_ptrIPP5TNodeNS_22__allocator_destructorINS_9allocatorIS2_EEEEEC1B7v160006ILb1EvEES3_NS_16__dependent_typeINS_27__unique_ptr_deleter_sfinaeIS7_EEXT_EE20__good_rval_ref_typeE, symObjAddr: 0x23A8, symBinAddr: 0x100004E44, symSize: 0x3C }
  - { offsetInCU: 0xBE7C, offset: 0xBE7C, size: 0x8, addend: 0x0, symName: __ZNSt3__114__split_bufferIPP5TNodeRNS_9allocatorIS3_EEE9push_backEOS3_, symObjAddr: 0x23E4, symBinAddr: 0x100004E80, symSize: 0x270 }
  - { offsetInCU: 0xBEF5, offset: 0xBEF5, size: 0x8, addend: 0x0, symName: __ZNKSt3__110unique_ptrIPP5TNodeNS_22__allocator_destructorINS_9allocatorIS2_EEEEE3getB7v160006Ev, symObjAddr: 0x2654, symBinAddr: 0x1000050F0, symSize: 0x28 }
  - { offsetInCU: 0xBF1B, offset: 0xBF1B, size: 0x8, addend: 0x0, symName: __ZNSt3__110unique_ptrIPP5TNodeNS_22__allocator_destructorINS_9allocatorIS2_EEEEE7releaseB7v160006Ev, symObjAddr: 0x267C, symBinAddr: 0x100005118, symSize: 0x44 }
  - { offsetInCU: 0xBF50, offset: 0xBF50, size: 0x8, addend: 0x0, symName: __ZNSt3__114__split_bufferIPP5TNodeRNS_9allocatorIS3_EEE10push_frontERKS3_, symObjAddr: 0x26C0, symBinAddr: 0x10000515C, symSize: 0x26C }
  - { offsetInCU: 0xBFC9, offset: 0xBFC9, size: 0x8, addend: 0x0, symName: __ZNSt3__114__split_bufferIPP5TNodeNS_9allocatorIS3_EEE9__end_capB7v160006Ev, symObjAddr: 0x2968, symBinAddr: 0x100005404, symSize: 0x28 }
  - { offsetInCU: 0xBFEF, offset: 0xBFEF, size: 0x8, addend: 0x0, symName: __ZNSt3__114__split_bufferIPP5TNodeRNS_9allocatorIS3_EEE9__end_capB7v160006Ev, symObjAddr: 0x2990, symBinAddr: 0x10000542C, symSize: 0x28 }
  - { offsetInCU: 0xC015, offset: 0xC015, size: 0x8, addend: 0x0, symName: __ZNSt3__110unique_ptrIPP5TNodeNS_22__allocator_destructorINS_9allocatorIS2_EEEEED1B7v160006Ev, symObjAddr: 0x29B8, symBinAddr: 0x100005454, symSize: 0x2C }
  - { offsetInCU: 0xC03F, offset: 0xC03F, size: 0x8, addend: 0x0, symName: __ZNSt3__114__split_bufferIPP5TNodeRNS_9allocatorIS3_EEED1Ev, symObjAddr: 0x29E4, symBinAddr: 0x100005480, symSize: 0x2C }
  - { offsetInCU: 0xC06B, offset: 0xC06B, size: 0x8, addend: 0x0, symName: __ZNSt3__114__split_bufferIPP5TNodeRNS_9allocatorIS3_EEE18__construct_at_endINS_13move_iteratorIPS3_EEEENS_9enable_ifIXsr27__is_cpp17_forward_iteratorIT_EE5valueEvE4typeESD_SD_, symObjAddr: 0x2A50, symBinAddr: 0x1000054EC, symSize: 0x104 }
  - { offsetInCU: 0xC0C7, offset: 0xC0C7, size: 0x8, addend: 0x0, symName: __ZNSt3__113move_iteratorIPPP5TNodeEC1B7v160006ES4_, symObjAddr: 0x2B54, symBinAddr: 0x1000055F0, symSize: 0x34 }
  - { offsetInCU: 0xC0FF, offset: 0xC0FF, size: 0x8, addend: 0x0, symName: __ZNSt3__116allocator_traitsINS_9allocatorIPP5TNodeEEE9constructB7v160006IS4_JRKS4_EvEEvRS5_PT_DpOT0_, symObjAddr: 0x2B88, symBinAddr: 0x100005624, symSize: 0x34 }
  - { offsetInCU: 0xC179, offset: 0xC179, size: 0x8, addend: 0x0, symName: __ZNKSt3__114__move_trivialclB7v160006IPP5TNodeS4_Li0EEENS_4pairIPT_PT0_EES7_S7_S9_, symObjAddr: 0x2D68, symBinAddr: 0x100005804, symSize: 0x48 }
  - { offsetInCU: 0xC1E1, offset: 0xC1E1, size: 0x8, addend: 0x0, symName: __ZNSt3__14pairIPPP5TNodeS4_EC1B7v160006ERKS4_S7_, symObjAddr: 0x2F44, symBinAddr: 0x1000059E0, symSize: 0x3C }
  - { offsetInCU: 0xC227, offset: 0xC227, size: 0x8, addend: 0x0, symName: __ZNSt3__14pairIPPP5TNodeS4_EC2B7v160006ERKS4_S7_, symObjAddr: 0x2F80, symBinAddr: 0x100005A1C, symSize: 0x34 }
  - { offsetInCU: 0xC26D, offset: 0xC26D, size: 0x8, addend: 0x0, symName: __ZNSt3__118__unwrap_iter_implIPPP5TNodeLb1EE8__unwrapB7v160006ES4_, symObjAddr: 0x2FB4, symBinAddr: 0x100005A50, symSize: 0x24 }
  - { offsetInCU: 0xC290, offset: 0xC290, size: 0x8, addend: 0x0, symName: __ZNSt3__118__unwrap_iter_implIPPP5TNodeLb1EE8__rewrapB7v160006ES4_S4_, symObjAddr: 0x2FD8, symBinAddr: 0x100005A74, symSize: 0x50 }
  - { offsetInCU: 0xC2CB, offset: 0xC2CB, size: 0x8, addend: 0x0, symName: __ZNSt3__114__split_bufferIPP5TNodeRNS_9allocatorIS3_EEE21_ConstructTransactionC1B7v160006EPPS3_m, symObjAddr: 0x3064, symBinAddr: 0x100005B00, symSize: 0x3C }
  - { offsetInCU: 0xC311, offset: 0xC311, size: 0x8, addend: 0x0, symName: __ZNSt3__116allocator_traitsINS_9allocatorIPP5TNodeEEE9constructB7v160006IS4_JS4_EvEEvRS5_PT_DpOT0_, symObjAddr: 0x30A0, symBinAddr: 0x100005B3C, symSize: 0x34 }
  - { offsetInCU: 0xC368, offset: 0xC368, size: 0x8, addend: 0x0, symName: __ZNSt3__114__split_bufferIPP5TNodeRNS_9allocatorIS3_EEE7__allocB7v160006Ev, symObjAddr: 0x30D4, symBinAddr: 0x100005B70, symSize: 0x28 }
  - { offsetInCU: 0xC38E, offset: 0xC38E, size: 0x8, addend: 0x0, symName: __ZNKSt3__113move_iteratorIPPP5TNodeEdeB7v160006Ev, symObjAddr: 0x30FC, symBinAddr: 0x100005B98, symSize: 0x18 }
  - { offsetInCU: 0xC3B4, offset: 0xC3B4, size: 0x8, addend: 0x0, symName: __ZNSt3__113move_iteratorIPPP5TNodeEppB7v160006Ev, symObjAddr: 0x3114, symBinAddr: 0x100005BB0, symSize: 0x20 }
  - { offsetInCU: 0xC3DA, offset: 0xC3DA, size: 0x8, addend: 0x0, symName: __ZNSt3__114__split_bufferIPP5TNodeRNS_9allocatorIS3_EEE21_ConstructTransactionD1B7v160006Ev, symObjAddr: 0x3134, symBinAddr: 0x100005BD0, symSize: 0x2C }
  - { offsetInCU: 0xC404, offset: 0xC404, size: 0x8, addend: 0x0, symName: __ZNKSt3__113move_iteratorIPPP5TNodeE4baseB7v160006Ev, symObjAddr: 0x31D8, symBinAddr: 0x100005C74, symSize: 0x18 }
  - { offsetInCU: 0xC42A, offset: 0xC42A, size: 0x8, addend: 0x0, symName: __ZNSt3__114__split_bufferIPP5TNodeRNS_9allocatorIS3_EEE21_ConstructTransactionC2B7v160006EPPS3_m, symObjAddr: 0x31F0, symBinAddr: 0x100005C8C, symSize: 0x44 }
  - { offsetInCU: 0xC470, offset: 0xC470, size: 0x8, addend: 0x0, symName: __ZNSt3__19allocatorIPP5TNodeE9constructB7v160006IS3_JS3_EEEvPT_DpOT0_, symObjAddr: 0x3234, symBinAddr: 0x100005CD0, symSize: 0x28 }
  - { offsetInCU: 0xC4C6, offset: 0xC4C6, size: 0x8, addend: 0x0, symName: __ZNSt3__117__compressed_pairIPPP5TNodeRNS_9allocatorIS3_EEE6secondB7v160006Ev, symObjAddr: 0x325C, symBinAddr: 0x100005CF8, symSize: 0x28 }
  - { offsetInCU: 0xC4EC, offset: 0xC4EC, size: 0x8, addend: 0x0, symName: __ZNSt3__122__compressed_pair_elemIRNS_9allocatorIPP5TNodeEELi1ELb0EE5__getB7v160006Ev, symObjAddr: 0x3284, symBinAddr: 0x100005D20, symSize: 0x18 }
  - { offsetInCU: 0xC512, offset: 0xC512, size: 0x8, addend: 0x0, symName: __ZNSt3__114__split_bufferIPP5TNodeRNS_9allocatorIS3_EEE21_ConstructTransactionD2B7v160006Ev, symObjAddr: 0x329C, symBinAddr: 0x100005D38, symSize: 0x20 }
  - { offsetInCU: 0xC53C, offset: 0xC53C, size: 0x8, addend: 0x0, symName: __ZNSt3__113move_iteratorIPPP5TNodeEC2B7v160006ES4_, symObjAddr: 0x32BC, symBinAddr: 0x100005D58, symSize: 0x20 }
  - { offsetInCU: 0xC574, offset: 0xC574, size: 0x8, addend: 0x0, symName: __ZNSt3__19allocatorIPP5TNodeE9constructB7v160006IS3_JRKS3_EEEvPT_DpOT0_, symObjAddr: 0x32DC, symBinAddr: 0x100005D78, symSize: 0x28 }
  - { offsetInCU: 0xC5CA, offset: 0xC5CA, size: 0x8, addend: 0x0, symName: __ZNSt3__19allocatorIP5TNodeE8allocateB7v160006Em, symObjAddr: 0x3304, symBinAddr: 0x100005DA0, symSize: 0x84 }
  - { offsetInCU: 0xC608, offset: 0xC608, size: 0x8, addend: 0x0, symName: __ZNSt3__116allocator_traitsINS_9allocatorIP5TNodeEEE8max_sizeB7v160006IS4_vEEmRKS4_, symObjAddr: 0x3388, symBinAddr: 0x100005E24, symSize: 0x24 }
  - { offsetInCU: 0xC636, offset: 0xC636, size: 0x8, addend: 0x0, symName: __ZNKSt3__19allocatorIP5TNodeE8max_sizeB7v160006Ev, symObjAddr: 0x3408, symBinAddr: 0x100005EA4, symSize: 0x14 }
  - { offsetInCU: 0xC666, offset: 0xC666, size: 0x8, addend: 0x0, symName: __ZNKSt3__123__move_backward_trivialclB7v160006IPP5TNodeS4_Li0EEENS_4pairIPT_PT0_EES7_S7_S9_, symObjAddr: 0x35CC, symBinAddr: 0x100006068, symSize: 0x48 }
  - { offsetInCU: 0xC6D8, offset: 0xC6D8, size: 0x8, addend: 0x0, symName: __ZNKSt3__16__lessImmEclB7v160006ERKmS3_, symObjAddr: 0x3734, symBinAddr: 0x1000061D0, symSize: 0x34 }
  - { offsetInCU: 0xC71A, offset: 0xC71A, size: 0x8, addend: 0x0, symName: __ZNSt3__114__split_bufferIPP5TNodeRNS_9allocatorIS3_EEEC2EmmS6_, symObjAddr: 0x3768, symBinAddr: 0x100006204, symSize: 0xD4 }
  - { offsetInCU: 0xC78E, offset: 0xC78E, size: 0x8, addend: 0x0, symName: __ZNSt3__117__compressed_pairIPPP5TNodeRNS_9allocatorIS3_EEEC1B7v160006IDnS7_EEOT_OT0_, symObjAddr: 0x383C, symBinAddr: 0x1000062D8, symSize: 0x3C }
  - { offsetInCU: 0xC7E6, offset: 0xC7E6, size: 0x8, addend: 0x0, symName: __ZNSt3__117__compressed_pairIPPP5TNodeRNS_9allocatorIS3_EEEC2B7v160006IDnS7_EEOT_OT0_, symObjAddr: 0x38B8, symBinAddr: 0x100006354, symSize: 0x48 }
  - { offsetInCU: 0xC83E, offset: 0xC83E, size: 0x8, addend: 0x0, symName: __ZNSt3__122__compressed_pair_elemIRNS_9allocatorIPP5TNodeEELi1ELb0EEC2B7v160006IS6_vEEOT_, symObjAddr: 0x3900, symBinAddr: 0x10000639C, symSize: 0x20 }
  - { offsetInCU: 0xC880, offset: 0xC880, size: 0x8, addend: 0x0, symName: __ZNSt3__19allocatorIPP5TNodeE8allocateB7v160006Em, symObjAddr: 0x3920, symBinAddr: 0x1000063BC, symSize: 0x84 }
  - { offsetInCU: 0xC8BE, offset: 0xC8BE, size: 0x8, addend: 0x0, symName: __ZNSt3__116allocator_traitsINS_9allocatorIPP5TNodeEEE8max_sizeB7v160006IS5_vEEmRKS5_, symObjAddr: 0x39A4, symBinAddr: 0x100006440, symSize: 0x24 }
  - { offsetInCU: 0xC8EC, offset: 0xC8EC, size: 0x8, addend: 0x0, symName: __ZNKSt3__19allocatorIPP5TNodeE8max_sizeB7v160006Ev, symObjAddr: 0x39C8, symBinAddr: 0x100006464, symSize: 0x14 }
  - { offsetInCU: 0xC912, offset: 0xC912, size: 0x8, addend: 0x0, symName: __ZNSt3__122__allocator_destructorINS_9allocatorIP5TNodeEEEC2B7v160006ERS4_m, symObjAddr: 0x39DC, symBinAddr: 0x100006478, symSize: 0x2C }
  - { offsetInCU: 0xC958, offset: 0xC958, size: 0x8, addend: 0x0, symName: __ZNSt3__110unique_ptrIPP5TNodeNS_22__allocator_destructorINS_9allocatorIS2_EEEEEC2B7v160006ILb1EvEES3_NS_16__dependent_typeINS_27__unique_ptr_deleter_sfinaeIS7_EEXT_EE20__good_rval_ref_typeE, symObjAddr: 0x3A08, symBinAddr: 0x1000064A4, symSize: 0x5C }
  - { offsetInCU: 0xC9A9, offset: 0xC9A9, size: 0x8, addend: 0x0, symName: __ZNSt3__117__compressed_pairIPP5TNodeNS_22__allocator_destructorINS_9allocatorIS2_EEEEEC1B7v160006IRS3_S7_EEOT_OT0_, symObjAddr: 0x3A64, symBinAddr: 0x100006500, symSize: 0x3C }
  - { offsetInCU: 0xCA01, offset: 0xCA01, size: 0x8, addend: 0x0, symName: __ZNSt3__117__compressed_pairIPP5TNodeNS_22__allocator_destructorINS_9allocatorIS2_EEEEEC2B7v160006IRS3_S7_EEOT_OT0_, symObjAddr: 0x3AA0, symBinAddr: 0x10000653C, symSize: 0x48 }
  - { offsetInCU: 0xCA59, offset: 0xCA59, size: 0x8, addend: 0x0, symName: __ZNSt3__122__compressed_pair_elemIPP5TNodeLi0ELb0EEC2B7v160006IRS3_vEEOT_, symObjAddr: 0x3AE8, symBinAddr: 0x100006584, symSize: 0x24 }
  - { offsetInCU: 0xCA9B, offset: 0xCA9B, size: 0x8, addend: 0x0, symName: __ZNSt3__122__compressed_pair_elemINS_22__allocator_destructorINS_9allocatorIP5TNodeEEEELi1ELb0EEC2B7v160006IS6_vEEOT_, symObjAddr: 0x3B0C, symBinAddr: 0x1000065A8, symSize: 0x24 }
  - { offsetInCU: 0xCADD, offset: 0xCADD, size: 0x8, addend: 0x0, symName: __ZNKSt3__117__compressed_pairIPP5TNodeNS_22__allocator_destructorINS_9allocatorIS2_EEEEE5firstB7v160006Ev, symObjAddr: 0x3B30, symBinAddr: 0x1000065CC, symSize: 0x24 }
  - { offsetInCU: 0xCB03, offset: 0xCB03, size: 0x8, addend: 0x0, symName: __ZNKSt3__122__compressed_pair_elemIPP5TNodeLi0ELb0EE5__getB7v160006Ev, symObjAddr: 0x3B54, symBinAddr: 0x1000065F0, symSize: 0x14 }
  - { offsetInCU: 0xCB29, offset: 0xCB29, size: 0x8, addend: 0x0, symName: __ZNSt3__117__compressed_pairIPP5TNodeNS_22__allocator_destructorINS_9allocatorIS2_EEEEE5firstB7v160006Ev, symObjAddr: 0x3B68, symBinAddr: 0x100006604, symSize: 0x24 }
  - { offsetInCU: 0xCB4F, offset: 0xCB4F, size: 0x8, addend: 0x0, symName: __ZNSt3__122__compressed_pair_elemIPP5TNodeLi0ELb0EE5__getB7v160006Ev, symObjAddr: 0x3B8C, symBinAddr: 0x100006628, symSize: 0x14 }
  - { offsetInCU: 0xCB75, offset: 0xCB75, size: 0x8, addend: 0x0, symName: __ZNSt3__117__compressed_pairIPPP5TNodeNS_9allocatorIS3_EEE5firstB7v160006Ev, symObjAddr: 0x3BA0, symBinAddr: 0x10000663C, symSize: 0x24 }
  - { offsetInCU: 0xCB9B, offset: 0xCB9B, size: 0x8, addend: 0x0, symName: __ZNSt3__122__compressed_pair_elemIPPP5TNodeLi0ELb0EE5__getB7v160006Ev, symObjAddr: 0x3BC4, symBinAddr: 0x100006660, symSize: 0x14 }
  - { offsetInCU: 0xCBC1, offset: 0xCBC1, size: 0x8, addend: 0x0, symName: __ZNSt3__117__compressed_pairIPPP5TNodeRNS_9allocatorIS3_EEE5firstB7v160006Ev, symObjAddr: 0x3BD8, symBinAddr: 0x100006674, symSize: 0x24 }
  - { offsetInCU: 0xCBE7, offset: 0xCBE7, size: 0x8, addend: 0x0, symName: __ZNSt3__110unique_ptrIPP5TNodeNS_22__allocator_destructorINS_9allocatorIS2_EEEEED2B7v160006Ev, symObjAddr: 0x3BFC, symBinAddr: 0x100006698, symSize: 0x30 }
  - { offsetInCU: 0xCC11, offset: 0xCC11, size: 0x8, addend: 0x0, symName: __ZNSt3__110unique_ptrIPP5TNodeNS_22__allocator_destructorINS_9allocatorIS2_EEEEE5resetB7v160006ES3_, symObjAddr: 0x3C2C, symBinAddr: 0x1000066C8, symSize: 0x78 }
  - { offsetInCU: 0xCC55, offset: 0xCC55, size: 0x8, addend: 0x0, symName: __ZNSt3__117__compressed_pairIPP5TNodeNS_22__allocator_destructorINS_9allocatorIS2_EEEEE6secondB7v160006Ev, symObjAddr: 0x3CA4, symBinAddr: 0x100006740, symSize: 0x28 }
  - { offsetInCU: 0xCC7B, offset: 0xCC7B, size: 0x8, addend: 0x0, symName: __ZNSt3__122__allocator_destructorINS_9allocatorIP5TNodeEEEclB7v160006EPS3_, symObjAddr: 0x3CCC, symBinAddr: 0x100006768, symSize: 0x34 }
  - { offsetInCU: 0xCCAF, offset: 0xCCAF, size: 0x8, addend: 0x0, symName: __ZNSt3__122__compressed_pair_elemINS_22__allocator_destructorINS_9allocatorIP5TNodeEEEELi1ELb0EE5__getB7v160006Ev, symObjAddr: 0x3D00, symBinAddr: 0x10000679C, symSize: 0x14 }
  - { offsetInCU: 0xCCD5, offset: 0xCCD5, size: 0x8, addend: 0x0, symName: __ZNSt3__114__split_bufferIPP5TNodeRNS_9allocatorIS3_EEED2Ev, symObjAddr: 0x3D14, symBinAddr: 0x1000067B0, symSize: 0x80 }
  - { offsetInCU: 0xCD01, offset: 0xCD01, size: 0x8, addend: 0x0, symName: __ZNSt3__114__split_bufferIPP5TNodeRNS_9allocatorIS3_EEE5clearB7v160006Ev, symObjAddr: 0x3D94, symBinAddr: 0x100006830, symSize: 0x28 }
  - { offsetInCU: 0xCD27, offset: 0xCD27, size: 0x8, addend: 0x0, symName: __ZNKSt3__114__split_bufferIPP5TNodeRNS_9allocatorIS3_EEE8capacityB7v160006Ev, symObjAddr: 0x3DBC, symBinAddr: 0x100006858, symSize: 0x40 }
  - { offsetInCU: 0xCD4D, offset: 0xCD4D, size: 0x8, addend: 0x0, symName: __ZNSt3__114__split_bufferIPP5TNodeRNS_9allocatorIS3_EEE17__destruct_at_endB7v160006EPS3_, symObjAddr: 0x3DFC, symBinAddr: 0x100006898, symSize: 0x2C }
  - { offsetInCU: 0xCD81, offset: 0xCD81, size: 0x8, addend: 0x0, symName: __ZNSt3__114__split_bufferIPP5TNodeRNS_9allocatorIS3_EEE17__destruct_at_endB7v160006EPS3_NS_17integral_constantIbLb0EEE, symObjAddr: 0x3E28, symBinAddr: 0x1000068C4, symSize: 0x94 }
  - { offsetInCU: 0xCDC1, offset: 0xCDC1, size: 0x8, addend: 0x0, symName: __ZNKSt3__114__split_bufferIPP5TNodeRNS_9allocatorIS3_EEE9__end_capB7v160006Ev, symObjAddr: 0x3EBC, symBinAddr: 0x100006958, symSize: 0x28 }
  - { offsetInCU: 0xCDE7, offset: 0xCDE7, size: 0x8, addend: 0x0, symName: __ZNKSt3__117__compressed_pairIPPP5TNodeRNS_9allocatorIS3_EEE5firstB7v160006Ev, symObjAddr: 0x3EE4, symBinAddr: 0x100006980, symSize: 0x24 }
  - { offsetInCU: 0xCE0D, offset: 0xCE0D, size: 0x8, addend: 0x0, symName: __ZNSt3__19allocatorIP5TNodeE9constructB7v160006IS2_JRKS2_EEEvPT_DpOT0_, symObjAddr: 0x3F08, symBinAddr: 0x1000069A4, symSize: 0x28 }
  - { offsetInCU: 0xCE63, offset: 0xCE63, size: 0x8, addend: 0x0, symName: __ZNSt3__15dequeIP5TNodeNS_9allocatorIS2_EEE4backEv, symObjAddr: 0x3F30, symBinAddr: 0x1000069CC, symSize: 0x68 }
  - { offsetInCU: 0xCE9A, offset: 0xCE9A, size: 0x8, addend: 0x0, symName: __ZNSt3__15dequeIP5TNodeNS_9allocatorIS2_EEE8pop_backEv, symObjAddr: 0x3F98, symBinAddr: 0x100006A34, symSize: 0xB8 }
  - { offsetInCU: 0xCEE0, offset: 0xCEE0, size: 0x8, addend: 0x0, symName: __ZNSt3__15dequeIP5TNodeNS_9allocatorIS2_EEE25__maybe_remove_back_spareB7v160006Eb, symObjAddr: 0x4064, symBinAddr: 0x100006B00, symSize: 0xCC }
  - { offsetInCU: 0xCF15, offset: 0xCF15, size: 0x8, addend: 0x0, symName: __ZNKSt3__15dequeIP5TNodeNS_9allocatorIS2_EEE19__back_spare_blocksB7v160006Ev, symObjAddr: 0x4130, symBinAddr: 0x100006BCC, symSize: 0x2C }
  - { offsetInCU: 0xCF3B, offset: 0xCF3B, size: 0x8, addend: 0x0, symName: __ZNSt3__114__split_bufferIPP5TNodeNS_9allocatorIS3_EEE4backB7v160006Ev, symObjAddr: 0x415C, symBinAddr: 0x100006BF8, symSize: 0x1C }
  - { offsetInCU: 0xCF61, offset: 0xCF61, size: 0x8, addend: 0x0, symName: __ZNSt3__114__split_bufferIPP5TNodeNS_9allocatorIS3_EEE8pop_backB7v160006Ev, symObjAddr: 0x4178, symBinAddr: 0x100006C14, symSize: 0x2C }
  - { offsetInCU: 0xCF87, offset: 0xCF87, size: 0x8, addend: 0x0, symName: __ZNSt3__111char_traitsIcE6lengthEPKc, symObjAddr: 0x4398, symBinAddr: 0x100006E34, symSize: 0x48 }
  - { offsetInCU: 0xCFC8, offset: 0xCFC8, size: 0x8, addend: 0x0, symName: __ZNKSt3__113basic_ostreamIcNS_11char_traitsIcEEE6sentrycvbB7v160006Ev, symObjAddr: 0x43E0, symBinAddr: 0x100006E7C, symSize: 0x1C }
  - { offsetInCU: 0xCFEE, offset: 0xCFEE, size: 0x8, addend: 0x0, symName: __ZNSt3__119ostreambuf_iteratorIcNS_11char_traitsIcEEEC1B7v160006ERNS_13basic_ostreamIcS2_EE, symObjAddr: 0x4644, symBinAddr: 0x1000070E0, symSize: 0x34 }
  - { offsetInCU: 0xD026, offset: 0xD026, size: 0x8, addend: 0x0, symName: __ZNKSt3__18ios_base5flagsB7v160006Ev, symObjAddr: 0x4678, symBinAddr: 0x100007114, symSize: 0x18 }
  - { offsetInCU: 0xD04E, offset: 0xD04E, size: 0x8, addend: 0x0, symName: __ZNKSt3__19basic_iosIcNS_11char_traitsIcEEE4fillB7v160006Ev, symObjAddr: 0x4690, symBinAddr: 0x10000712C, symSize: 0x64 }
  - { offsetInCU: 0xD076, offset: 0xD076, size: 0x8, addend: 0x0, symName: __ZNKSt3__119ostreambuf_iteratorIcNS_11char_traitsIcEEE6failedB7v160006Ev, symObjAddr: 0x46F4, symBinAddr: 0x100007190, symSize: 0x24 }
  - { offsetInCU: 0xD09C, offset: 0xD09C, size: 0x8, addend: 0x0, symName: __ZNSt3__19basic_iosIcNS_11char_traitsIcEEE8setstateB7v160006Ej, symObjAddr: 0x4718, symBinAddr: 0x1000071B4, symSize: 0x2C }
  - { offsetInCU: 0xD0D1, offset: 0xD0D1, size: 0x8, addend: 0x0, symName: __ZNKSt3__18ios_base5widthB7v160006Ev, symObjAddr: 0x4744, symBinAddr: 0x1000071E0, symSize: 0x18 }
  - { offsetInCU: 0xD0F9, offset: 0xD0F9, size: 0x8, addend: 0x0, symName: __ZNSt3__115basic_streambufIcNS_11char_traitsIcEEE5sputnB7v160006EPKcl, symObjAddr: 0x475C, symBinAddr: 0x1000071F8, symSize: 0x3C }
  - { offsetInCU: 0xD13B, offset: 0xD13B, size: 0x8, addend: 0x0, symName: __ZNSt3__112basic_stringIcNS_11char_traitsIcEENS_9allocatorIcEEEC1B7v160006Emc, symObjAddr: 0x4798, symBinAddr: 0x100007234, symSize: 0x3C }
  - { offsetInCU: 0xD183, offset: 0xD183, size: 0x8, addend: 0x0, symName: __ZNKSt3__112basic_stringIcNS_11char_traitsIcEENS_9allocatorIcEEE4dataB7v160006Ev, symObjAddr: 0x47D4, symBinAddr: 0x100007270, symSize: 0x28 }
  - { offsetInCU: 0xD1A9, offset: 0xD1A9, size: 0x8, addend: 0x0, symName: __ZNSt3__18ios_base5widthB7v160006El, symObjAddr: 0x47FC, symBinAddr: 0x100007298, symSize: 0x2C }
  - { offsetInCU: 0xD1EF, offset: 0xD1EF, size: 0x8, addend: 0x0, symName: __ZNSt3__112basic_stringIcNS_11char_traitsIcEENS_9allocatorIcEEEC2B7v160006Emc, symObjAddr: 0x4828, symBinAddr: 0x1000072C4, symSize: 0x54 }
  - { offsetInCU: 0xD237, offset: 0xD237, size: 0x8, addend: 0x0, symName: __ZNSt3__117__compressed_pairINS_12basic_stringIcNS_11char_traitsIcEENS_9allocatorIcEEE5__repES5_EC1B7v160006INS_18__default_init_tagESA_EEOT_OT0_, symObjAddr: 0x487C, symBinAddr: 0x100007318, symSize: 0x3C }
  - { offsetInCU: 0xD28F, offset: 0xD28F, size: 0x8, addend: 0x0, symName: __ZNSt3__117__compressed_pairINS_12basic_stringIcNS_11char_traitsIcEENS_9allocatorIcEEE5__repES5_EC2B7v160006INS_18__default_init_tagESA_EEOT_OT0_, symObjAddr: 0x48C8, symBinAddr: 0x100007364, symSize: 0x3C }
  - { offsetInCU: 0xD2E7, offset: 0xD2E7, size: 0x8, addend: 0x0, symName: __ZNSt3__122__compressed_pair_elemINS_12basic_stringIcNS_11char_traitsIcEENS_9allocatorIcEEE5__repELi0ELb0EEC2B7v160006ENS_18__default_init_tagE, symObjAddr: 0x4904, symBinAddr: 0x1000073A0, symSize: 0x14 }
  - { offsetInCU: 0xD31B, offset: 0xD31B, size: 0x8, addend: 0x0, symName: __ZNSt3__122__compressed_pair_elemINS_9allocatorIcEELi1ELb1EEC2B7v160006ENS_18__default_init_tagE, symObjAddr: 0x4918, symBinAddr: 0x1000073B4, symSize: 0x2C }
  - { offsetInCU: 0xD34F, offset: 0xD34F, size: 0x8, addend: 0x0, symName: __ZNSt3__19allocatorIcEC2B7v160006Ev, symObjAddr: 0x4944, symBinAddr: 0x1000073E0, symSize: 0x2C }
  - { offsetInCU: 0xD379, offset: 0xD379, size: 0x8, addend: 0x0, symName: __ZNSt3__116__non_trivial_ifILb1ENS_9allocatorIcEEEC2B7v160006Ev, symObjAddr: 0x4970, symBinAddr: 0x10000740C, symSize: 0x14 }
  - { offsetInCU: 0xD3A3, offset: 0xD3A3, size: 0x8, addend: 0x0, symName: __ZNKSt3__112basic_stringIcNS_11char_traitsIcEENS_9allocatorIcEEE13__get_pointerB7v160006Ev, symObjAddr: 0x4998, symBinAddr: 0x100007434, symSize: 0x54 }
  - { offsetInCU: 0xD3C9, offset: 0xD3C9, size: 0x8, addend: 0x0, symName: __ZNKSt3__112basic_stringIcNS_11char_traitsIcEENS_9allocatorIcEEE9__is_longB7v160006Ev, symObjAddr: 0x49EC, symBinAddr: 0x100007488, symSize: 0x74 }
  - { offsetInCU: 0xD3EF, offset: 0xD3EF, size: 0x8, addend: 0x0, symName: __ZNKSt3__112basic_stringIcNS_11char_traitsIcEENS_9allocatorIcEEE18__get_long_pointerB7v160006Ev, symObjAddr: 0x4A60, symBinAddr: 0x1000074FC, symSize: 0x28 }
  - { offsetInCU: 0xD415, offset: 0xD415, size: 0x8, addend: 0x0, symName: __ZNKSt3__112basic_stringIcNS_11char_traitsIcEENS_9allocatorIcEEE19__get_short_pointerB7v160006Ev, symObjAddr: 0x4A88, symBinAddr: 0x100007524, symSize: 0x28 }
  - { offsetInCU: 0xD43B, offset: 0xD43B, size: 0x8, addend: 0x0, symName: __ZNKSt3__117__compressed_pairINS_12basic_stringIcNS_11char_traitsIcEENS_9allocatorIcEEE5__repES5_E5firstB7v160006Ev, symObjAddr: 0x4AB0, symBinAddr: 0x10000754C, symSize: 0x24 }
  - { offsetInCU: 0xD461, offset: 0xD461, size: 0x8, addend: 0x0, symName: __ZNKSt3__122__compressed_pair_elemINS_12basic_stringIcNS_11char_traitsIcEENS_9allocatorIcEEE5__repELi0ELb0EE5__getB7v160006Ev, symObjAddr: 0x4AD4, symBinAddr: 0x100007570, symSize: 0x14 }
  - { offsetInCU: 0xD487, offset: 0xD487, size: 0x8, addend: 0x0, symName: __ZNSt3__114pointer_traitsIPKcE10pointer_toB7v160006ERS1_, symObjAddr: 0x4AE8, symBinAddr: 0x100007584, symSize: 0x14 }
  - { offsetInCU: 0xD4AA, offset: 0xD4AA, size: 0x8, addend: 0x0, symName: __ZNSt3__119ostreambuf_iteratorIcNS_11char_traitsIcEEEC2B7v160006ERNS_13basic_ostreamIcS2_EE, symObjAddr: 0x4AFC, symBinAddr: 0x100007598, symSize: 0x68 }
  - { offsetInCU: 0xD4E2, offset: 0xD4E2, size: 0x8, addend: 0x0, symName: __ZNKSt3__19basic_iosIcNS_11char_traitsIcEEE5rdbufB7v160006Ev, symObjAddr: 0x4B64, symBinAddr: 0x100007600, symSize: 0x24 }
  - { offsetInCU: 0xD50A, offset: 0xD50A, size: 0x8, addend: 0x0, symName: __ZNKSt3__18ios_base5rdbufB7v160006Ev, symObjAddr: 0x4B88, symBinAddr: 0x100007624, symSize: 0x18 }
  - { offsetInCU: 0xD530, offset: 0xD530, size: 0x8, addend: 0x0, symName: __ZNSt3__111char_traitsIcE11eq_int_typeEii, symObjAddr: 0x4BA0, symBinAddr: 0x10000763C, symSize: 0x28 }
  - { offsetInCU: 0xD561, offset: 0xD561, size: 0x8, addend: 0x0, symName: __ZNSt3__111char_traitsIcE3eofEv, symObjAddr: 0x4BC8, symBinAddr: 0x100007664, symSize: 0x8 }
  - { offsetInCU: 0xD575, offset: 0xD575, size: 0x8, addend: 0x0, symName: __ZNKSt3__19basic_iosIcNS_11char_traitsIcEEE5widenB7v160006Ec, symObjAddr: 0x4BD0, symBinAddr: 0x10000766C, symSize: 0x8C }
  - { offsetInCU: 0xD5E3, offset: 0xD5E3, size: 0x8, addend: 0x0, symName: __ZNKSt3__15ctypeIcE5widenB7v160006Ec, symObjAddr: 0x4C88, symBinAddr: 0x100007724, symSize: 0x38 }
  - { offsetInCU: 0xD618, offset: 0xD618, size: 0x8, addend: 0x0, symName: __ZNSt3__18ios_base8setstateB7v160006Ej, symObjAddr: 0x4CC0, symBinAddr: 0x10000775C, symSize: 0x34 }
...
